; Function Attrs: nounwind uwtable
define dso_local void @setTypeReleaseIterator(ptr noundef %0) local_unnamed_addr #0 {
  %2 = getelementptr inbounds nuw i8, ptr %0, i64 8
  %3 = load i32, ptr %2, align 8, !tbaa !45
  %4 = icmp eq i32 %3, 2
  br i1 %4, label %5, label %8

5:                                                ; preds = %1
  %6 = getelementptr inbounds nuw i8, ptr %0, i64 16
  %7 = load ptr, ptr %6, align 8, !tbaa !46
  tail call void @dictReleaseIterator(ptr noundef %7) #10
  br label %8

8:                                                ; preds = %5, %1
  tail call void @zfree(ptr noundef nonnull %0) #10
  ret void
}